target datalayout = "e-m:e-p270:32:32-p271:32:32-p272:64:64-i64:64-i128:128-f80:128-n8:16:32:64-S128"
target triple = "x86_64-pc-linux-gnu"

%struct.AVCodecParserContext = type { ptr, ptr, i64, i64, i64, i32, i32, i64, i64, i64, i64, i32, i32, [4 x i64], [4 x i64], [4 x i64], i32, i64, [4 x i64], i32, i32, i32, i32, [4 x i64], i64, i64, i32, i32, i32, i32, i32, i32, i32, i32, i32 }
%struct.VC1ParseContext = type { %struct.ParseContext, %struct.VC1Context, i8, i64, [144 x i8], i64, i32 }
%struct.ParseContext = type { ptr, i32, i32, i32, i32, i32, i32, i32, i64 }
%struct.VC1Context = type { %struct.MpegEncContext, %struct.IntraX8Context, %struct.H264ChromaContext, %struct.VC1DSPContext, i32, i32, i32, i32, i32, i32, i32, i32, i32, i32, i32, i32, i32, i32, i32, i32, i32, i32, i32, i32, i32, i32, i32, i32, i32, i32, i32, i32, i32, i32, i32, i32, i32, i32, i32, i32, i8, i8, i32, i32, i32, i32, i8, i8, [4 x [64 x i8]], i32, i32, ptr, ptr, i8, i8, i8, i8, i32, i32, i32, i32, i32, i32, i8, ptr, ptr, i32, i32, i32, i32, i32, ptr, [3 x ptr], i8, i8, i16, i8, i8, i32, i8, i8, ptr, i32, i32, ptr, ptr, ptr, i32, i32, i32, i32, [2 x [256 x i8]], [2 x [256 x i8]], [2 x [256 x i8]], [2 x [256 x i8]], [2 x [256 x i8]], [2 x [256 x i8]], ptr, ptr, i32, ptr, i32, i32, i32, i32, i32, i32, i8, i8, i32, i8, i8, i8, i8, i8, i8, i8, i32, i8, i8, ptr, i32, ptr, i32, i8, i8, i8, i8, i8, i8, i32, i32, i8, i8, ptr, ptr, ptr, ptr, i8, i8, ptr, i32, [64 x i8], ptr, ptr, ptr, [2 x ptr], ptr, [2 x ptr], i32, i32, i32, i32, i32, i32, i32, i32, [2 x i32], i32, i32, i32, i32, i32, i32, i32, i32, i32, i32, i32, i32, i32, i32, ptr, i32, i32, i32, i32, [2 x [2 x ptr]], i32, i32, i32, ptr, i32, i32, i32, i32, i32, ptr, ptr, ptr, ptr, ptr, ptr, i8, i8, i8, i32, i32, i32 }
%struct.MpegEncContext = type { ptr, i32, i32, i32, [12 x i32], i32, %struct.ScanTable, %struct.ScanTable, [64 x i8], [64 x i8], ptr, ptr, i32, i32, i32, i32, i32, i32, i32, i32, i32, i32, i32, i32, i32, i32, i32, i32, i32, i32, i32, i32, i64, i64, ptr, %struct.BufferPoolContext, i32, i32, %union.anon, i32, %struct.MPVWorkPicture, %struct.MPVWorkPicture, %struct.MPVWorkPicture, i32, [3 x i32], ptr, [3 x ptr], ptr, ptr, ptr, ptr, ptr, ptr, [3 x ptr], i32, ptr, ptr, ptr, ptr, %struct.ScratchpadContext, i32, i32, i32, i32, i32, i32, %struct.BlockDSPContext, %struct.H264ChromaContext, %struct.HpelDSPContext, %struct.IDCTDSPContext, %struct.QpelDSPContext, %struct.VideoDSPContext, %struct.H263DSPContext, ptr, [2 x [2 x ptr]], i32, i32, [2 x [4 x [2 x i32]]], [2 x [2 x i32]], [2 x [2 x [2 x i32]]], [2 x [64 x i16]], i32, i32, i32, i32, i32, [6 x i32], [6 x i32], [3 x ptr], ptr, [64 x i16], [64 x i16], [64 x i16], [64 x i16], i32, i32, %struct.GetBitContext, i32, i32, i32, i32, i32, i32, i32, i32, i32, i32, i32, i32, i32, i32, i32, i64, i64, i16, i16, i16, i16, i32, i32, i32, i32, i32, i32, i32, i32, i32, [3 x i32], i32, i32, i32, i32, i32, i32, %struct.GetBitContext, i32, [2 x [2 x i32]], i32, i32, i32, i32, i32, i32, i32, i32, i32, i32, i32, i32, i32, i32, [2 x i32], i32, i32, ptr, ptr, ptr, ptr, ptr, i32, i32, %struct.ERContext }
%struct.ScanTable = type { ptr, [64 x i8], [64 x i8] }
%struct.BufferPoolContext = type { ptr, ptr, ptr, ptr, ptr, i32, i32, i32 }
%union.anon = type { [32 x ptr] }
%struct.MPVWorkPicture = type { [3 x ptr], [3 x i64], ptr, ptr, [2 x ptr], ptr, ptr, [2 x ptr], i32 }
%struct.ScratchpadContext = type { ptr, ptr, %union.anon.0, i32 }
%union.anon.0 = type { ptr }
%struct.BlockDSPContext = type { ptr, ptr, [2 x ptr] }
%struct.HpelDSPContext = type { [4 x [4 x ptr]], [4 x [4 x ptr]], [4 x [4 x ptr]], [4 x ptr] }
%struct.IDCTDSPContext = type { ptr, ptr, ptr, ptr, ptr, ptr, [64 x i8], i32, i32 }
%struct.QpelDSPContext = type { [2 x [16 x ptr]], [2 x [16 x ptr]], [2 x [16 x ptr]] }
%struct.VideoDSPContext = type { ptr, ptr }
%struct.H263DSPContext = type { ptr, ptr }
%struct.GetBitContext = type { ptr, ptr, i32, i32, i32 }
%struct.ERContext = type { ptr, ptr, i32, ptr, i32, i32, i32, i64, i64, i32, i32, ptr, ptr, [3 x ptr], ptr, ptr, [2 x [4 x [2 x i32]]], %struct.ERPicture, %struct.ERPicture, %struct.ERPicture, [2 x ptr], [2 x ptr], i16, i16, i32, i32, ptr, ptr }
%struct.ERPicture = type { ptr, ptr, ptr, [2 x ptr], [2 x ptr], ptr, i32 }
%struct.IntraX8Context = type { [4 x ptr], ptr, [3 x ptr], i32, ptr, [3 x [64 x i8]], %struct.WMV2DSPContext, [64 x i8], ptr, ptr, %struct.IntraX8DSPContext, %struct.BlockDSPContext, i32, i32, i32, i32, ptr, ptr, i32, i32, i32, [3 x ptr], [42 x i8], i32, i32, i32, i32, i32, i32, i32, i32, i32, i32, i32 }
%struct.WMV2DSPContext = type { ptr, ptr, [8 x ptr], i32 }
%struct.IntraX8DSPContext = type { ptr, ptr, [12 x ptr], ptr }
%struct.H264ChromaContext = type { [4 x ptr], [4 x ptr] }
%struct.VC1DSPContext = type { ptr, ptr, ptr, ptr, ptr, ptr, ptr, ptr, ptr, ptr, ptr, ptr, ptr, ptr, ptr, ptr, ptr, ptr, [2 x [16 x ptr]], [2 x [16 x ptr]], [3 x ptr], [3 x ptr], ptr, ptr, ptr, ptr, ptr, ptr, ptr }

; Function Attrs: cold nounwind optsize uwtable
define internal i32 @vc1_parse_init(ptr noundef %0) #0 {
  %2 = alloca ptr, align 8
  %3 = alloca ptr, align 8
  store ptr %0, ptr %2, align 8, !tbaa !4
  call void @llvm.lifetime.start.p0(i64 8, ptr %3) #6
  %4 = load ptr, ptr %2, align 8, !tbaa !4
  %5 = getelementptr inbounds nuw %struct.AVCodecParserContext, ptr %4, i32 0, i32 0
  %6 = load ptr, ptr %5, align 8, !tbaa !9
  store ptr %6, ptr %3, align 8, !tbaa !14
  %7 = load ptr, ptr %3, align 8, !tbaa !14
  %8 = getelementptr inbounds nuw %struct.VC1ParseContext, ptr %7, i32 0, i32 1
  %9 = getelementptr inbounds nuw %struct.VC1Context, ptr %8, i32 0, i32 0
  %10 = getelementptr inbounds nuw %struct.MpegEncContext, ptr %9, i32 0, i32 39
  store i32 1, ptr %10, align 8, !tbaa !16
  %11 = load ptr, ptr %3, align 8, !tbaa !14
  %12 = getelementptr inbounds nuw %struct.VC1ParseContext, ptr %11, i32 0, i32 1
  %13 = getelementptr inbounds nuw %struct.VC1Context, ptr %12, i32 0, i32 163
  store i32 1, ptr %13, align 4, !tbaa !52
  %14 = load ptr, ptr %3, align 8, !tbaa !14
  %15 = getelementptr inbounds nuw %struct.VC1ParseContext, ptr %14, i32 0, i32 1
  %16 = getelementptr inbounds nuw %struct.VC1Context, ptr %15, i32 0, i32 197
  store i32 1, ptr %16, align 8, !tbaa !53
  %17 = load ptr, ptr %3, align 8, !tbaa !14
  %18 = getelementptr inbounds nuw %struct.VC1ParseContext, ptr %17, i32 0, i32 2
  store i8 0, ptr %18, align 8, !tbaa !54
  %19 = load ptr, ptr %3, align 8, !tbaa !14
  %20 = getelementptr inbounds nuw %struct.VC1ParseContext, ptr %19, i32 0, i32 3
  store i64 0, ptr %20, align 8, !tbaa !55
  %21 = load ptr, ptr %3, align 8, !tbaa !14
  %22 = getelementptr inbounds nuw %struct.VC1ParseContext, ptr %21, i32 0, i32 5
  store i64 0, ptr %22, align 8, !tbaa !56
  %23 = load ptr, ptr %3, align 8, !tbaa !14
  %24 = getelementptr inbounds nuw %struct.VC1ParseContext, ptr %23, i32 0, i32 6
  store i32 0, ptr %24, align 8, !tbaa !57
  %25 = load ptr, ptr %3, align 8, !tbaa !14
  %26 = getelementptr inbounds nuw %struct.VC1ParseContext, ptr %25, i32 0, i32 1
  %27 = getelementptr inbounds nuw %struct.VC1Context, ptr %26, i32 0, i32 3
  call void @ff_vc1dsp_init(ptr noundef %27)
  call void @llvm.lifetime.end.p0(i64 8, ptr %3) #6
  ret i32 0
}