; Function Attrs: cold nounwind optsize uwtable
define internal noundef i32 @vc1_parse_init(ptr noundef readonly captures(none) %0) #0 {
  %2 = load ptr, ptr %0, align 8, !tbaa !4
  %3 = getelementptr inbounds nuw i8, ptr %2, i64 960
  store i32 1, ptr %3, align 8, !tbaa !12
  %4 = getelementptr inbounds nuw i8, ptr %2, i64 10500
  store i32 1, ptr %4, align 4, !tbaa !48
  %5 = getelementptr inbounds nuw i8, ptr %2, i64 10696
  store i32 1, ptr %5, align 8, !tbaa !49
  %6 = getelementptr inbounds nuw i8, ptr %2, i64 10704
  store i8 0, ptr %6, align 8, !tbaa !50
  %7 = getelementptr inbounds nuw i8, ptr %2, i64 10712
  store i64 0, ptr %7, align 8, !tbaa !51
  %8 = getelementptr inbounds nuw i8, ptr %2, i64 10864
  store i64 0, ptr %8, align 8, !tbaa !52
  %9 = getelementptr inbounds nuw i8, ptr %2, i64 10872
  store i32 0, ptr %9, align 8, !tbaa !53
  %10 = getelementptr inbounds nuw i8, ptr %2, i64 5672
  tail call void @ff_vc1dsp_init(ptr noundef nonnull %10) #5
  ret i32 0
}